target datalayout = "e-m:e-p270:32:32-p271:32:32-p272:64:64-i64:64-i128:128-f80:128-n8:16:32:64-S128"
target triple = "x86_64-pc-linux-gnu"

%struct.tm = type { i32, i32, i32, i32, i32, i32, i32, i32, i32, i64, ptr }

@.str = private unnamed_addr constant [45 x i8] c"%04d-%02d-%02dT%02d:%02d:%02d.%03d%c%02d%02d\00", align 1

; Function Attrs: mustprogress nounwind uwtable
define linkonce_odr hidden noundef i32 @_Z12checked_castIilET_T0_(i64 noundef %0) #1 comdat {
  %2 = alloca i64, align 8
  %3 = alloca i32, align 4
  store i64 %0, ptr %2, align 8
  %4 = load i64, ptr %2, align 8
  %5 = trunc i64 %4 to i32
  store i32 %5, ptr %3, align 4
  %6 = load i32, ptr %3, align 4
  ret i32 %6
}

; Function Attrs: mustprogress nounwind uwtable
define hidden noundef ptr @_ZN2os12iso8601_timeElPcmb(i64 noundef %0, ptr noundef %1, i64 noundef %2, i1 noundef zeroext %3) #1 align 2 {
  %5 = alloca ptr, align 8
  %6 = alloca i64, align 8
  %7 = alloca ptr, align 8
  %8 = alloca i64, align 8
  %9 = alloca i8, align 1
  %10 = alloca i32, align 4
  %11 = alloca i64, align 8
  %12 = alloca i32, align 4
  %13 = alloca %struct.tm, align 8
  %14 = alloca i64, align 8
  %15 = alloca i64, align 8
  %16 = alloca i64, align 8
  %17 = alloca i64, align 8
  %18 = alloca i64, align 8
  %19 = alloca i8, align 1
  %20 = alloca i64, align 8
  %21 = alloca i64, align 8
  %22 = alloca i64, align 8
  %23 = alloca i32, align 4
  %24 = alloca i32, align 4
  %25 = alloca i32, align 4
  store i64 %0, ptr %6, align 8
  store ptr %1, ptr %7, align 8
  store i64 %2, ptr %8, align 8
  %26 = zext i1 %3 to i8
  store i8 %26, ptr %9, align 1
  %27 = load ptr, ptr %7, align 8
  %28 = icmp eq ptr %27, null
  br i1 %28, label %29, label %30

29:                                               ; preds = %4
  store ptr null, ptr %5, align 8
  br label %103

30:                                               ; preds = %4
  %31 = load i64, ptr %8, align 8
  %32 = icmp ult i64 %31, 29
  br i1 %32, label %33, label %34

33:                                               ; preds = %30
  store ptr null, ptr %5, align 8
  br label %103

34:                                               ; preds = %30
  store i32 1000, ptr %10, align 4
  %35 = load i64, ptr %6, align 8
  %36 = sdiv i64 %35, 1000
  store i64 %36, ptr %11, align 8
  %37 = load i64, ptr %6, align 8
  %38 = srem i64 %37, 1000
  %39 = call noundef i32 @_Z12checked_castIilET_T0_(i64 noundef %38)
  store i32 %39, ptr %12, align 4
  %40 = load i8, ptr %9, align 1
  %41 = trunc i8 %40 to i1
  br i1 %41, label %42, label %47

42:                                               ; preds = %34
  %43 = call noundef ptr @_ZN2os9gmtime_pdEPKlP2tm(ptr noundef %11, ptr noundef %13)
  %44 = icmp eq ptr %43, null
  br i1 %44, label %45, label %46

45:                                               ; preds = %42
  store ptr null, ptr %5, align 8
  br label %103

46:                                               ; preds = %42
  br label %52

47:                                               ; preds = %34
  %48 = call noundef ptr @_ZN2os12localtime_pdEPKlP2tm(ptr noundef %11, ptr noundef %13)
  %49 = icmp eq ptr %48, null
  br i1 %49, label %50, label %51

50:                                               ; preds = %47
  store ptr null, ptr %5, align 8
  br label %103

51:                                               ; preds = %47
  br label %52

52:                                               ; preds = %51, %46
  store i64 60, ptr %14, align 8
  store i64 60, ptr %15, align 8
  store i64 3600, ptr %16, align 8
  store i64 0, ptr %17, align 8
  %53 = load i8, ptr %9, align 1
  %54 = trunc i8 %53 to i1
  br i1 %54, label %59, label %55

55:                                               ; preds = %52
  %56 = getelementptr inbounds %struct.tm, ptr %13, i32 0, i32 9
  %57 = load i64, ptr %56, align 8
  %58 = sub nsw i64 0, %57
  store i64 %58, ptr %17, align 8
  br label %59

59:                                               ; preds = %55, %52
  %60 = load i64, ptr %17, align 8
  %61 = sub nsw i64 0, %60
  store i64 %61, ptr %18, align 8
  store i8 43, ptr %19, align 1
  %62 = load i64, ptr %18, align 8
  store i64 %62, ptr %20, align 8
  %63 = load i64, ptr %18, align 8
  %64 = icmp slt i64 %63, 0
  br i1 %64, label %65, label %68

65:                                               ; preds = %59
  store i8 45, ptr %19, align 1
  %66 = load i64, ptr %20, align 8
  %67 = sub nsw i64 0, %66
  store i64 %67, ptr %20, align 8
  br label %68

68:                                               ; preds = %65, %59
  %69 = load i64, ptr %20, align 8
  %70 = sdiv i64 %69, 3600
  store i64 %70, ptr %21, align 8
  %71 = load i64, ptr %20, align 8
  %72 = srem i64 %71, 3600
  %73 = sdiv i64 %72, 60
  store i64 %73, ptr %22, align 8
  %74 = getelementptr inbounds %struct.tm, ptr %13, i32 0, i32 5
  %75 = load i32, ptr %74, align 4
  %76 = add nsw i32 1900, %75
  store i32 %76, ptr %23, align 4
  %77 = getelementptr inbounds %struct.tm, ptr %13, i32 0, i32 4
  %78 = load i32, ptr %77, align 8
  %79 = add nsw i32 1, %78
  store i32 %79, ptr %24, align 4
  %80 = load ptr, ptr %7, align 8
  %81 = load i64, ptr %8, align 8
  %82 = load i32, ptr %23, align 4
  %83 = load i32, ptr %24, align 4
  %84 = getelementptr inbounds %struct.tm, ptr %13, i32 0, i32 3
  %85 = load i32, ptr %84, align 4
  %86 = getelementptr inbounds %struct.tm, ptr %13, i32 0, i32 2
  %87 = load i32, ptr %86, align 8
  %88 = getelementptr inbounds %struct.tm, ptr %13, i32 0, i32 1
  %89 = load i32, ptr %88, align 4
  %90 = getelementptr inbounds %struct.tm, ptr %13, i32 0, i32 0
  %91 = load i32, ptr %90, align 8
  %92 = load i32, ptr %12, align 4
  %93 = load i8, ptr %19, align 1
  %94 = sext i8 %93 to i32
  %95 = load i64, ptr %21, align 8
  %96 = load i64, ptr %22, align 8
  %97 = call i32 (ptr, i64, ptr, ...) @jio_snprintf(ptr noundef %80, i64 noundef %81, ptr noundef @.str, i32 noundef %82, i32 noundef %83, i32 noundef %85, i32 noundef %87, i32 noundef %89, i32 noundef %91, i32 noundef %92, i32 noundef %94, i64 noundef %95, i64 noundef %96)
  store i32 %97, ptr %25, align 4
  %98 = load i32, ptr %25, align 4
  %99 = icmp eq i32 %98, 0
  br i1 %99, label %100, label %101

100:                                              ; preds = %68
  store ptr null, ptr %5, align 8
  br label %103

101:                                              ; preds = %68
  %102 = load ptr, ptr %7, align 8
  store ptr %102, ptr %5, align 8
  br label %103

103:                                              ; preds = %101, %100, %50, %45, %33, %29
  %104 = load ptr, ptr %5, align 8
  ret ptr %104
}