; Function Attrs: mustprogress nounwind uwtable
define hidden noundef ptr @_ZN2os12iso8601_timeElPcmb(i64 noundef %0, ptr noundef %1, i64 noundef %2, i1 noundef zeroext %3) local_unnamed_addr #3 align 2 {
  %5 = alloca i64, align 8
  %6 = alloca %struct.tm, align 8
  %7 = icmp eq ptr %1, null
  %8 = icmp ult i64 %2, 29
  %or.cond = or i1 %7, %8
  br i1 %or.cond, label %42, label %9

9:                                                ; preds = %4
  %10 = sdiv i64 %0, 1000
  store i64 %10, ptr %5, align 8
  %11 = srem i64 %0, 1000
  %12 = trunc nsw i64 %11 to i32
  br i1 %3, label %13, label %16

13:                                               ; preds = %9
  %14 = call noundef ptr @_ZN2os9gmtime_pdEPKlP2tm(ptr noundef nonnull %5, ptr noundef nonnull %6) #28
  %15 = icmp eq ptr %14, null
  br i1 %15, label %42, label %19

16:                                               ; preds = %9
  %17 = call noundef ptr @_ZN2os12localtime_pdEPKlP2tm(ptr noundef nonnull %5, ptr noundef nonnull %6) #28
  %18 = icmp eq ptr %17, null
  br i1 %18, label %42, label %19

19:                                               ; preds = %16, %13
  %20 = getelementptr inbounds i8, ptr %6, i64 40
  %21 = load i64, ptr %20, align 8
  %22 = sub nsw i64 0, %21
  %.022 = select i1 %3, i64 0, i64 %22
  %23 = icmp sgt i64 %.022, 0
  %.024 = call i64 @llvm.abs.i64(i64 %.022, i1 true)
  %.023 = select i1 %23, i32 45, i32 43
  %24 = udiv i64 %.024, 3600
  %25 = urem i64 %.024, 3600
  %.lhs.trunc = trunc nuw nsw i64 %25 to i16
  %26 = udiv i16 %.lhs.trunc, 60
  %.zext = zext nneg i16 %26 to i64
  %27 = getelementptr inbounds i8, ptr %6, i64 20
  %28 = load i32, ptr %27, align 4
  %29 = add nsw i32 %28, 1900
  %30 = getelementptr inbounds i8, ptr %6, i64 16
  %31 = load i32, ptr %30, align 8
  %32 = add nsw i32 %31, 1
  %33 = getelementptr inbounds i8, ptr %6, i64 12
  %34 = load i32, ptr %33, align 4
  %35 = getelementptr inbounds i8, ptr %6, i64 8
  %36 = load i32, ptr %35, align 8
  %37 = getelementptr inbounds i8, ptr %6, i64 4
  %38 = load i32, ptr %37, align 4
  %39 = load i32, ptr %6, align 8
  %40 = call i32 (ptr, i64, ptr, ...) @jio_snprintf(ptr noundef nonnull %1, i64 noundef %2, ptr noundef nonnull @.str, i32 noundef %29, i32 noundef %32, i32 noundef %34, i32 noundef %36, i32 noundef %38, i32 noundef %39, i32 noundef %12, i32 noundef %.023, i64 noundef %24, i64 noundef %.zext) #28
  %41 = icmp eq i32 %40, 0
  %spec.select = select i1 %41, ptr null, ptr %1
  br label %42

42:                                               ; preds = %19, %16, %13, %4
  %.0 = phi ptr [ null, %4 ], [ null, %13 ], [ null, %16 ], [ %spec.select, %19 ]
  ret ptr %.0
}